(dp0
S'joeo'
p1
(dp2
S'2timesCompleted'
p3
I2
sS'1timesCompleted'
p4
I2
sS'logins'
p5
I3
sS'9timesCompleted'
p6
I1
sS'1timesAttempted'
p7
I3
sS'3timesCompleted'
p8
I2
sS'3timesAttempted'
p9
I3
sS'4timesAttempted'
p10
I1
sS'2timesAttempted'
p11
I2
sS'9timesAttempted'
p12
I1
sS'8timesCompleted'
p13
I1
sS'8timesAttempted'
p14
I1
sS'7timesCompleted'
p15
I2
sS'7timesAttempted'
p16
I2
sS'4timesCompleted'
p17
I1
sS'6timesAttempted'
p18
I1
ssS'joe'
p19
(dp20
S'2timesCompleted'
p21
I8
sS'1timesCompleted'
p22
I3
sS'logins'
p23
I14
sS'9timesCompleted'
p24
I8
sS'1timesAttempted'
p25
I6
sS'4timesAttempted'
p26
I5
sS'3timesAttempted'
p27
I3
sS'3timesCompleted'
p28
I3
sS'0timesAttempted'
p29
I10
sS'2timesAttempted'
p30
I9
sS'9timesAttempted'
p31
I11
sS'0timesCompleted'
p32
I9
sS'8timesCompleted'
p33
I6
sS'8timesAttempted'
p34
I8
sS'5timesAttempted'
p35
I4
sS'7timesCompleted'
p36
I7
sS'4timesCompleted'
p37
I5
sS'5timesCompleted'
p38
I4
sS'6timesCompleted'
p39
I4
sS'7timesAttempted'
p40
I9
sS'6timesAttempted'
p41
I6
ssS'joe0'
p42
(dp43
S'logins'
p44
I1
sS'3timesCompleted'
p45
I1
sS'0timesCompleted'
p46
I1
sS'4timesAttempted'
p47
I2
sS'0timesAttempted'
p48
I1
sS'3timesAttempted'
p49
I1
sS'5timesAttempted'
p50
I3
sS'4timesCompleted'
p51
I2
sS'5timesCompleted'
p52
I3
sS'7timesAttempted'
p53
I1
ssS'joe1'
p54
(dp55
S'2timesCompleted'
p56
I2
sS'1timesCompleted'
p57
I3
sS'logins'
p58
I2
sS'9timesCompleted'
p59
I1
sS'1timesAttempted'
p60
I3
sS'4timesAttempted'
p61
I1
sS'0timesCompleted'
p62
I1
sS'5timesCompleted'
p63
I4
sS'0timesAttempted'
p64
I1
sS'2timesAttempted'
p65
I2
sS'9timesAttempted'
p66
I1
sS'3timesAttempted'
p67
I1
sS'8timesCompleted'
p68
I1
sS'8timesAttempted'
p69
I1
sS'5timesAttempted'
p70
I5
sS'7timesCompleted'
p71
I2
sS'7timesAttempted'
p72
I2
sS'6timesCompleted'
p73
I3
sS'4timesCompleted'
p74
I1
sS'6timesAttempted'
p75
I3
ss.